	.arch armv8-a
	.file	"switch-arm.c"
	.text
.Ltext0:
	.file 0 "/home/cs3650/2019-hw2" "switch-arm.c"
	.align	2
	.type	save_stack, %function
save_stack:
.LVL0:
.LFB51:
	.file 1 "switch-arm.c"
	.loc 1 10 1 view -0
	.cfi_startproc
	.loc 1 10 1 is_stmt 0 view .LVU1
	sub	sp, sp, #16
	.cfi_def_cfa_offset 16
	str	x0, [sp, 8]
	str	x1, [sp]
	.loc 1 11 5 is_stmt 1 view .LVU2
	.loc 1 11 8 is_stmt 0 view .LVU3
	ldr	x0, [sp, 8]
	.loc 1 11 8 view .LVU4
	cmp	x0, 0
	beq	.L3
	.loc 1 12 9 is_stmt 1 view .LVU5
	.loc 1 12 15 is_stmt 0 view .LVU6
	ldr	x0, [sp, 8]
	.loc 1 12 15 view .LVU7
	ldr	x1, [sp]
	.loc 1 12 15 view .LVU8
	str	x1, [x0]
	.loc 1 13 9 is_stmt 1 view .LVU9
	.loc 1 13 13 is_stmt 0 view .LVU10
	ldr	x1, [sp]
	.loc 1 13 13 view .LVU11
	mov	w0, 42405
.LVL1:
	.loc 1 13 13 view .LVU12
	movk	w0, 0xa5a5, lsl 16
	str	w0, [x1]
	str	w0, [x1, 4]
.L3:
	.loc 1 15 1 view .LVU13
	nop
	add	sp, sp, 16
	.cfi_def_cfa_offset 0
.LVL2:
	.loc 1 15 1 view .LVU14
	ret
	.cfi_endproc
.LFE51:
	.size	save_stack, .-save_stack
	.align	2
	.global	trampoline
	.type	trampoline, %function
trampoline:
.LFB54:
	.loc 1 37 1 is_stmt 1 view -0
	.cfi_startproc
	.loc 1 38 5 view .LVU16
#APP
// 38 "switch-arm.c" 1
	ldr x3, [sp, #-96]
// 0 "" 2
	.loc 1 39 5 view .LVU17
// 39 "switch-arm.c" 1
	ldr x0, [sp, #-88]
// 0 "" 2
	.loc 1 40 5 view .LVU18
// 40 "switch-arm.c" 1
	ldr x1, [sp, #-80]
// 0 "" 2
	.loc 1 41 5 view .LVU19
// 41 "switch-arm.c" 1
	ldr x2, [sp, #-72]
// 0 "" 2
	.loc 1 42 5 view .LVU20
// 42 "switch-arm.c" 1
	blr x3
// 0 "" 2
	.loc 1 43 5 view .LVU21
	.loc 1 43 14 is_stmt 0 view .LVU22
#NO_APP
	mov	x0, 0
	str	wzr, [x0]
	.loc 1 44 1 view .LVU23
	ret
	.cfi_endproc
.LFE54:
	.size	trampoline, .-trampoline
	.align	2
	.global	_switch
	.type	_switch, %function
_switch:
.LVL3:
.LFB52:
	.loc 1 19 1 is_stmt 1 view -0
	.cfi_startproc
	.loc 1 19 1 is_stmt 0 view .LVU25
	stp	x29, x30, [sp, -112]!
	.cfi_def_cfa_offset 112
	.cfi_offset 29, -112
	.cfi_offset 30, -104
	mov	x29, sp
	stp	x19, x20, [sp, 16]
	stp	x21, x22, [sp, 32]
	stp	x23, x24, [sp, 48]
	stp	x25, x26, [sp, 64]
	stp	x27, x28, [sp, 80]
	.cfi_offset 19, -96
	.cfi_offset 20, -88
	.cfi_offset 21, -80
	.cfi_offset 22, -72
	.cfi_offset 23, -64
	.cfi_offset 24, -56
	.cfi_offset 25, -48
	.cfi_offset 26, -40
	.cfi_offset 27, -32
	.cfi_offset 28, -24
	mov	x3, x0
	mov	x0, x1
.LVL4:
	.loc 1 19 1 view .LVU26
	str	x2, [sp, 104]
	.loc 1 20 5 is_stmt 1 view .LVU27
	.loc 1 21 5 view .LVU28
	.loc 1 22 5 view .LVU29
#APP
// 22 "switch-arm.c" 1
	mov x1, sp
// 0 "" 2
.LVL5:
	.loc 1 23 5 view .LVU30
#NO_APP
	sub	x1, x1, #16
.LVL6:
	.loc 1 23 5 is_stmt 0 view .LVU31
	blr	x3
.LVL7:
	.loc 1 24 5 is_stmt 1 view .LVU32
	ldr	x0, [sp, 104]
#APP
// 24 "switch-arm.c" 1
	mov sp, x0
// 0 "" 2
	.loc 1 25 1 is_stmt 0 view .LVU33
#NO_APP
	ldp	x19, x20, [sp, 16]
	ldp	x21, x22, [sp, 32]
	ldp	x23, x24, [sp, 48]
	ldp	x25, x26, [sp, 64]
	ldp	x27, x28, [sp, 80]
	ldp	x29, x30, [sp], 112
	.cfi_restore 30
	.cfi_restore 29
	.cfi_restore 27
	.cfi_restore 28
	.cfi_restore 25
	.cfi_restore 26
	.cfi_restore 23
	.cfi_restore 24
	.cfi_restore 21
	.cfi_restore 22
	.cfi_restore 19
	.cfi_restore 20
	.cfi_def_cfa_offset 0
.LVL8:
	.loc 1 25 1 view .LVU34
	ret
	.cfi_endproc
.LFE52:
	.size	_switch, .-_switch
	.section	.rodata.str1.8,"aMS",@progbits,1
	.align	3
.LC0:
	.string	"switch-arm.c"
	.align	3
.LC1:
	.string	"*(unsigned long*)new_sp == 0xA5A5A5A5A5A5A5A5"
	.text
	.align	2
	.global	switch_thread
	.type	switch_thread, %function
switch_thread:
.LVL9:
.LFB53:
	.loc 1 28 1 is_stmt 1 view -0
	.cfi_startproc
	.loc 1 28 1 is_stmt 0 view .LVU36
	stp	x29, x30, [sp, -16]!
	.cfi_def_cfa_offset 16
	.cfi_offset 29, -16
	.cfi_offset 30, -8
	mov	x29, sp
	.loc 1 29 5 is_stmt 1 view .LVU37
	ldr	x3, [x1]
	mov	x2, 42405
	movk	x2, 0xa5a5, lsl 16
	movk	x2, 0xa5a5, lsl 32
	movk	x2, 0xa5a5, lsl 48
	cmp	x3, x2
	bne	.L10
	.loc 1 30 5 view .LVU38
	add	x2, x1, 16
	mov	x1, x0
.LVL10:
	.loc 1 30 5 is_stmt 0 view .LVU39
	adrp	x0, save_stack
.LVL11:
	.loc 1 30 5 view .LVU40
	add	x0, x0, :lo12:save_stack
	bl	_switch
.LVL12:
	.loc 1 31 1 view .LVU41
	ldp	x29, x30, [sp], 16
	.cfi_remember_state
	.cfi_restore 30
	.cfi_restore 29
	.cfi_def_cfa_offset 0
	ret
.LVL13:
.L10:
	.cfi_restore_state
	.loc 1 29 5 is_stmt 1 discriminator 1 view .LVU42
	adrp	x3, .LANCHOR0
	add	x3, x3, :lo12:.LANCHOR0
	mov	w2, 29
	adrp	x1, .LC0
.LVL14:
	.loc 1 29 5 is_stmt 0 discriminator 1 view .LVU43
	add	x1, x1, :lo12:.LC0
	adrp	x0, .LC1
.LVL15:
	.loc 1 29 5 discriminator 1 view .LVU44
	add	x0, x0, :lo12:.LC1
	bl	__assert_fail
.LVL16:
	.cfi_endproc
.LFE53:
	.size	switch_thread, .-switch_thread
	.align	2
	.global	setup_stack
	.type	setup_stack, %function
setup_stack:
.LVL17:
.LFB56:
	.loc 1 67 1 is_stmt 1 view -0
	.cfi_startproc
	.loc 1 68 5 view .LVU46
.LBB4:
.LBI4:
	.loc 1 46 14 view .LVU47
.LBB5:
	.loc 1 49 5 view .LVU48
	.loc 1 49 42 is_stmt 0 view .LVU49
	sub	x1, x1, #256
.LVL18:
	.loc 1 49 42 view .LVU50
	add	x0, x0, x1
.LVL19:
	.loc 1 49 48 view .LVU51
	and	x0, x0, -16
.LVL20:
	.loc 1 50 5 is_stmt 1 view .LVU52
	.loc 1 52 5 view .LVU53
	.loc 1 52 13 is_stmt 0 view .LVU54
	mov	w1, 42405
.LVL21:
	.loc 1 52 13 view .LVU55
	bfi	w1, w1, 16, 16
	str	w1, [x0]
	str	w1, [x0, 4]
	.loc 1 53 5 is_stmt 1 view .LVU56
.LVL22:
	.loc 1 53 13 is_stmt 0 view .LVU57
	str	xzr, [x0, 8]
	.loc 1 56 5 is_stmt 1 view .LVU58
.LVL23:
	.loc 1 56 13 is_stmt 0 view .LVU59
	str	xzr, [x0, 16]
	.loc 1 57 5 is_stmt 1 view .LVU60
.LVL24:
	.loc 1 57 13 is_stmt 0 view .LVU61
	adrp	x1, trampoline
	add	x1, x1, :lo12:trampoline
	str	x1, [x0, 24]
	.loc 1 60 5 is_stmt 1 view .LVU62
.LVL25:
	.loc 1 60 13 is_stmt 0 view .LVU63
	str	x2, [x0, 32]
	.loc 1 61 5 is_stmt 1 view .LVU64
.LVL26:
	.loc 1 61 13 is_stmt 0 view .LVU65
	str	x3, [x0, 40]
	.loc 1 62 5 is_stmt 1 view .LVU66
.LVL27:
	.loc 1 62 13 is_stmt 0 view .LVU67
	str	x4, [x0, 48]
	.loc 1 63 5 is_stmt 1 view .LVU68
.LVL28:
	.loc 1 63 5 is_stmt 0 view .LVU69
.LBE5:
.LBE4:
	.loc 1 69 1 view .LVU70
	ret
	.cfi_endproc
.LFE56:
	.size	setup_stack, .-setup_stack
	.section	.rodata
	.align	3
	.set	.LANCHOR0,. + 0
	.type	__PRETTY_FUNCTION__.0, %object
	.size	__PRETTY_FUNCTION__.0, 14
__PRETTY_FUNCTION__.0:
	.string	"switch_thread"
	.text
.Letext0:
	.file 2 "/usr/lib/gcc/aarch64-linux-gnu/11/include/stddef.h"
	.file 3 "/usr/include/assert.h"
	.section	.note.GNU-stack,"",@progbits
